(dp0
S'Sonia'
p1
(dp2
S'logins'
p3
I1
sS'1'
p4
(dp5
S'incorrect'
p6
I0
sS'active_time'
p7
F17.721999883651733
sS'level'
p8
I1
sS'attempts'
p9
I0
sS'correct'
p10
I1
sS'previous_num'
p11
I00
ssS'0'
p12
(dp13
g6
I0
sg7
F3.3960001468658447
sg8
I1
sg9
I1
sg10
I1
sg11
I00
ssS'3'
p14
(dp15
g6
I0
sg7
F4.522000074386597
sg8
I1
sg9
I1
sg10
I1
sg11
I00
ssS'2'
p16
(dp17
g6
I0
sg7
I0
sg8
I0
sg9
I1
sg10
I0
sg11
I01
ssS'5'
p18
(dp19
g6
I0
sg7
F6.319000005722046
sg8
I1
sg9
I1
sg10
I1
sg11
I00
ssS'4'
p20
(dp21
g6
I0
sg7
F2.94599986076355
sg8
I1
sg9
I1
sg10
I1
sg11
I00
ssS'7'
p22
(dp23
g6
I0
sg7
F3.2789998054504395
sg8
I1
sg9
I1
sg10
I1
sg11
I00
ssS'6'
p24
(dp25
g6
I1
sg7
F13.955999851226807
sg8
I0
sg9
I3
sg10
I2
sg11
I00
ssS'9'
p26
(dp27
g6
I1
sg7
F19.61899995803833
sg8
I1
sg9
I3
sg10
I2
sg11
I00
ssS'8'
p28
(dp29
g6
I0
sg7
F7.170000076293945
sg8
I1
sg9
I1
sg10
I1
sg11
I00
sssS'Sofia'
p30
(dp31
S'logins'
p32
I1
sS'1'
p33
(dp34
S'incorrect'
p35
I0
sS'active_time'
p36
F36.77500009536743
sS'level'
p37
I1
sS'attempts'
p38
I0
sS'correct'
p39
I1
sS'previous_num'
p40
I00
ssS'0'
p41
(dp42
g35
I0
sg36
I0
sg37
I0
sg38
I0
sg39
I0
sg40
I00
ssS'3'
p43
(dp44
g35
I0
sg36
I0
sg37
I0
sg38
I0
sg39
I0
sg40
I00
ssS'2'
p45
(dp46
g35
I0
sg36
F4.204999923706055
sg37
I0
sg38
I1
sg39
I1
sg40
I00
ssS'5'
p47
(dp48
g35
I0
sg36
I0
sg37
I0
sg38
I0
sg39
I0
sg40
I00
ssS'4'
p49
(dp50
g35
I0
sg36
I0
sg37
I0
sg38
I0
sg39
I0
sg40
I00
ssS'7'
p51
(dp52
g35
I0
sg36
I0
sg37
I0
sg38
I0
sg39
I0
sg40
I00
ssS'6'
p53
(dp54
g35
I0
sg36
I0
sg37
I0
sg38
I0
sg39
I0
sg40
I00
ssS'9'
p55
(dp56
g35
I0
sg36
I0
sg37
I0
sg38
I0
sg39
I0
sg40
I00
ssS'8'
p57
(dp58
g35
I0
sg36
I0
sg37
I0
sg38
I1
sg39
I0
sg40
I01
sssS'sdf'
p59
(dp60
S'logins'
p61
I89
sS'1'
p62
(dp63
S'incorrect'
p64
I3
sS'active_time'
p65
F68.58700060844421
sS'level'
p66
I3
sS'attempts'
p67
I10
sS'correct'
p68
I6
sS'previous_num'
p69
I00
ssS'0'
p70
(dp71
g64
I0
sg65
F21.40400004386902
sg66
I4
sg67
I3
sg68
I4
sg69
I01
ssS'3'
p72
(dp73
g64
I0
sg65
F23.728000164031982
sg66
I4
sg67
I2
sg68
I4
sg69
I00
ssS'2'
p74
(dp75
g64
I1
sg65
F19.77399969100952
sg66
I3
sg67
I6
sg68
I4
sg69
I00
ssS'5'
p76
(dp77
g64
I1
sg65
F11.480000019073486
sg66
I4
sg67
I7
sg68
I5
sg69
I00
ssS'4'
p78
(dp79
g64
I0
sg65
F21.325000047683716
sg66
I4
sg67
I8
sg68
I4
sg69
I00
ssS'7'
p80
(dp81
g64
I0
sg65
F24.87600016593933
sg66
I3
sg67
I4
sg68
I4
sg69
I00
ssS'6'
p82
(dp83
g64
I1
sg65
F64.77999973297119
sg66
I4
sg67
I4
sg68
I5
sg69
I00
ssS'9'
p84
(dp85
g64
I0
sg65
F59.46499991416931
sg66
I3
sg67
I2
sg68
I3
sg69
I00
ssS'8'
p86
(dp87
g64
I1
sg65
F45.33899974822998
sg66
I5
sg67
I6
sg68
I6
sg69
I00
sssS'nayo'
p88
(dp89
S'logins'
p90
I13
sS'1'
p91
(dp92
S'incorrect'
p93
I0
sS'active_time'
p94
I0
sS'level'
p95
I0
sS'attempts'
p96
I0
sS'correct'
p97
I0
sS'previous_num'
p98
I00
ssS'0'
p99
(dp100
g93
I0
sg94
I0
sg95
I0
sg96
I0
sg97
I0
sg98
I00
ssS'3'
p101
(dp102
g93
I0
sg94
I0
sg95
I0
sg96
I0
sg97
I0
sg98
I01
ssS'2'
p103
(dp104
g93
I0
sg94
I0
sg95
I0
sg96
I0
sg97
I0
sg98
I00
ssS'5'
p105
(dp106
g93
I0
sg94
I0
sg95
I0
sg96
I0
sg97
I0
sg98
I00
ssS'4'
p107
(dp108
g93
I0
sg94
I0
sg95
I0
sg96
I0
sg97
I0
sg98
I00
ssS'7'
p109
(dp110
g93
I0
sg94
I0
sg95
I0
sg96
I0
sg97
I0
sg98
I00
ssS'6'
p111
(dp112
g93
I0
sg94
I0
sg95
I0
sg96
I0
sg97
I0
sg98
I00
ssS'9'
p113
(dp114
g93
I0
sg94
I0
sg95
I0
sg96
I0
sg97
I0
sg98
I00
ssS'8'
p115
(dp116
g93
I0
sg94
I0
sg95
I0
sg96
I0
sg97
I0
sg98
I00
sssS'Nayo'
p117
(dp118
S'logins'
p119
I2
sS'1'
p120
(dp121
S'incorrect'
p122
I1
sS'active_time'
p123
F29.08299994468689
sS'level'
p124
I4
sS'attempts'
p125
I6
sS'correct'
p126
I5
sS'previous_num'
p127
I00
ssS'0'
p128
(dp129
g122
I1
sg123
F20.074000120162964
sg124
I4
sg125
I5
sg126
I4
sg127
I00
ssS'3'
p130
(dp131
g122
I0
sg123
F11.545000076293945
sg124
I4
sg125
I4
sg126
I4
sg127
I00
ssS'2'
p132
(dp133
g122
I0
sg123
F22.258999824523926
sg124
I4
sg125
I4
sg126
I4
sg127
I00
ssS'5'
p134
(dp135
g122
I0
sg123
F12.90999984741211
sg124
I5
sg125
I5
sg126
I5
sg127
I00
ssS'4'
p136
(dp137
g122
I1
sg123
F25.44599986076355
sg124
I3
sg125
I5
sg126
I4
sg127
I00
ssS'7'
p138
(dp139
g122
I0
sg123
F27.43499994277954
sg124
I4
sg125
I4
sg126
I4
sg127
I00
ssS'6'
p140
(dp141
g122
I0
sg123
F22.35199999809265
sg124
I5
sg125
I5
sg126
I5
sg127
I01
ssS'9'
p142
(dp143
g122
I0
sg123
F12.15499997138977
sg124
I4
sg125
I4
sg126
I4
sg127
I00
ssS'8'
p144
(dp145
g122
I0
sg123
F55.95700001716614
sg124
I5
sg125
I5
sg126
I5
sg127
I00
sssS'sfd'
p146
(dp147
S'logins'
p148
I1
sS'1'
p149
(dp150
S'incorrect'
p151
I0
sS'active_time'
p152
I0
sS'level'
p153
I0
sS'attempts'
p154
I0
sS'correct'
p155
I0
sS'previous_num'
p156
I00
ssS'0'
p157
(dp158
g151
I0
sg152
I0
sg153
I0
sg154
I0
sg155
I0
sg156
I00
ssS'3'
p159
(dp160
g151
I0
sg152
I0
sg153
I0
sg154
I0
sg155
I0
sg156
I00
ssS'2'
p161
(dp162
g151
I0
sg152
I0
sg153
I0
sg154
I0
sg155
I0
sg156
I00
ssS'5'
p163
(dp164
g151
I0
sg152
I0
sg153
I0
sg154
I0
sg155
I0
sg156
I01
ssS'4'
p165
(dp166
g151
I0
sg152
I0
sg153
I0
sg154
I0
sg155
I0
sg156
I00
ssS'7'
p167
(dp168
g151
I0
sg152
I0
sg153
I0
sg154
I0
sg155
I0
sg156
I00
ssS'6'
p169
(dp170
g151
I0
sg152
I0
sg153
I0
sg154
I0
sg155
I0
sg156
I00
ssS'9'
p171
(dp172
g151
I0
sg152
I0
sg153
I0
sg154
I0
sg155
I0
sg156
I00
ssS'8'
p173
(dp174
g151
I0
sg152
I0
sg153
I0
sg154
I0
sg155
I0
sg156
I00
sss.