(dp0
S'Nayo'
p1
(dp2
S'digit4attempted'
p3
I2
sS'logins'
p4
I2
sS'digit2attempted'
p5
I1
sS'digit6attempted'
p6
I1
sS'digit5attempted'
p7
I1
sS'digit0attempted'
p8
I1
sS'digit8attempted'
p9
I2
sS'digit9attempted'
p10
I1
sS'digit1attempted'
p11
I2
ss.