(dp0
S'sdf'
p1
(dp2
S'logins'
p3
I19
sS'1'
p4
(dp5
S'incorrect'
p6
I3
sS'active_time'
p7
F68.58700060844421
sS'level'
p8
I3
sS'attempts'
p9
I10
sS'correct'
p10
I6
sS'previous_num'
p11
I01
ssS'0'
p12
(dp13
g6
I0
sg7
F18.466000080108643
sg8
I3
sg9
I2
sg10
I3
sg11
I00
ssS'3'
p14
(dp15
g6
I0
sg7
F21.219000101089478
sg8
I3
sg9
I2
sg10
I3
sg11
I00
ssS'2'
p16
(dp17
g6
I1
sg7
F19.77399969100952
sg8
I3
sg9
I5
sg10
I4
sg11
I01
ssS'5'
p18
(dp19
g6
I1
sg7
F9.569999933242798
sg8
I3
sg9
I5
sg10
I4
sg11
I01
ssS'4'
p20
(dp21
g6
I0
sg7
F11.555000066757202
sg8
I3
sg9
I7
sg10
I3
sg11
I00
ssS'7'
p22
(dp23
g6
I0
sg7
F22.112000226974487
sg8
I3
sg9
I3
sg10
I3
sg11
I01
ssS'6'
p24
(dp25
g6
I1
sg7
F64.77999973297119
sg8
I4
sg9
I4
sg10
I5
sg11
I01
ssS'9'
p26
(dp27
g6
I0
sg7
F59.46499991416931
sg8
I3
sg9
I2
sg10
I3
sg11
I01
ssS'8'
p28
(dp29
g6
I1
sg7
F42.228999853134155
sg8
I3
sg9
I6
sg10
I5
sg11
I00
sssS'Nayo'
p30
(dp31
S'logins'
p32
I1
sS'1'
p33
(dp34
S'incorrect'
p35
I1
sS'active_time'
p36
F29.08299994468689
sS'level'
p37
I4
sS'attempts'
p38
I6
sS'correct'
p39
I5
sS'previous_num'
p40
I00
ssS'0'
p41
(dp42
g35
I1
sg36
F20.074000120162964
sg37
I4
sg38
I5
sg39
I4
sg40
I00
ssS'3'
p43
(dp44
g35
I0
sg36
F11.545000076293945
sg37
I4
sg38
I4
sg39
I4
sg40
I00
ssS'2'
p45
(dp46
g35
I0
sg36
F22.258999824523926
sg37
I4
sg38
I4
sg39
I4
sg40
I00
ssS'5'
p47
(dp48
g35
I0
sg36
F12.90999984741211
sg37
I5
sg38
I5
sg39
I5
sg40
I00
ssS'4'
p49
(dp50
g35
I1
sg36
F25.44599986076355
sg37
I3
sg38
I5
sg39
I4
sg40
I01
ssS'7'
p51
(dp52
g35
I0
sg36
F27.43499994277954
sg37
I4
sg38
I4
sg39
I4
sg40
I00
ssS'6'
p53
(dp54
g35
I0
sg36
F22.35199999809265
sg37
I5
sg38
I5
sg39
I5
sg40
I00
ssS'9'
p55
(dp56
g35
I0
sg36
F12.15499997138977
sg37
I4
sg38
I4
sg39
I4
sg40
I00
ssS'8'
p57
(dp58
g35
I0
sg36
F55.95700001716614
sg37
I5
sg38
I5
sg39
I5
sg40
I00
sss.