(dp0
S'Sonia'
p1
(dp2
S'logins'
p3
I1
sS'1'
p4
(dp5
S'incorrect'
p6
I0
sS'active_time'
p7
F17.721999883651733
sS'level'
p8
I1
sS'attempts'
p9
I0
sS'correct'
p10
I1
sS'previous_num'
p11
I00
ssS'0'
p12
(dp13
g6
I0
sg7
F3.3960001468658447
sg8
I1
sg9
I1
sg10
I1
sg11
I00
ssS'3'
p14
(dp15
g6
I0
sg7
F4.522000074386597
sg8
I1
sg9
I1
sg10
I1
sg11
I00
ssS'2'
p16
(dp17
g6
I0
sg7
I0
sg8
I0
sg9
I1
sg10
I0
sg11
I01
ssS'5'
p18
(dp19
g6
I0
sg7
F6.319000005722046
sg8
I1
sg9
I1
sg10
I1
sg11
I00
ssS'4'
p20
(dp21
g6
I0
sg7
F2.94599986076355
sg8
I1
sg9
I1
sg10
I1
sg11
I00
ssS'7'
p22
(dp23
g6
I0
sg7
F3.2789998054504395
sg8
I1
sg9
I1
sg10
I1
sg11
I00
ssS'6'
p24
(dp25
g6
I1
sg7
F13.955999851226807
sg8
I0
sg9
I3
sg10
I2
sg11
I00
ssS'9'
p26
(dp27
g6
I1
sg7
F19.61899995803833
sg8
I1
sg9
I3
sg10
I2
sg11
I00
ssS'8'
p28
(dp29
g6
I0
sg7
F7.170000076293945
sg8
I1
sg9
I1
sg10
I1
sg11
I00
sssS'sdf'
p30
(dp31
S'logins'
p32
I89
sS'1'
p33
(dp34
S'incorrect'
p35
I3
sS'active_time'
p36
F68.58700060844421
sS'level'
p37
I3
sS'attempts'
p38
I10
sS'correct'
p39
I6
sS'previous_num'
p40
I00
ssS'0'
p41
(dp42
g35
I0
sg36
F21.40400004386902
sg37
I4
sg38
I3
sg39
I4
sg40
I01
ssS'3'
p43
(dp44
g35
I0
sg36
F23.728000164031982
sg37
I4
sg38
I2
sg39
I4
sg40
I00
ssS'2'
p45
(dp46
g35
I1
sg36
F19.77399969100952
sg37
I3
sg38
I6
sg39
I4
sg40
I00
ssS'5'
p47
(dp48
g35
I1
sg36
F11.480000019073486
sg37
I4
sg38
I7
sg39
I5
sg40
I00
ssS'4'
p49
(dp50
g35
I0
sg36
F21.325000047683716
sg37
I4
sg38
I8
sg39
I4
sg40
I00
ssS'7'
p51
(dp52
g35
I0
sg36
F24.87600016593933
sg37
I3
sg38
I4
sg39
I4
sg40
I00
ssS'6'
p53
(dp54
g35
I1
sg36
F64.77999973297119
sg37
I4
sg38
I4
sg39
I5
sg40
I00
ssS'9'
p55
(dp56
g35
I0
sg36
F59.46499991416931
sg37
I3
sg38
I2
sg39
I3
sg40
I00
ssS'8'
p57
(dp58
g35
I1
sg36
F45.33899974822998
sg37
I5
sg38
I6
sg39
I6
sg40
I00
sssS'Nayo'
p59
(dp60
S'logins'
p61
I1
sS'1'
p62
(dp63
S'incorrect'
p64
I1
sS'active_time'
p65
F29.08299994468689
sS'level'
p66
I4
sS'attempts'
p67
I6
sS'correct'
p68
I5
sS'previous_num'
p69
I00
ssS'0'
p70
(dp71
g64
I1
sg65
F20.074000120162964
sg66
I4
sg67
I5
sg68
I4
sg69
I00
ssS'3'
p72
(dp73
g64
I0
sg65
F11.545000076293945
sg66
I4
sg67
I4
sg68
I4
sg69
I00
ssS'2'
p74
(dp75
g64
I0
sg65
F22.258999824523926
sg66
I4
sg67
I4
sg68
I4
sg69
I00
ssS'5'
p76
(dp77
g64
I0
sg65
F12.90999984741211
sg66
I5
sg67
I5
sg68
I5
sg69
I00
ssS'4'
p78
(dp79
g64
I1
sg65
F25.44599986076355
sg66
I3
sg67
I5
sg68
I4
sg69
I01
ssS'7'
p80
(dp81
g64
I0
sg65
F27.43499994277954
sg66
I4
sg67
I4
sg68
I4
sg69
I00
ssS'6'
p82
(dp83
g64
I0
sg65
F22.35199999809265
sg66
I5
sg67
I5
sg68
I5
sg69
I00
ssS'9'
p84
(dp85
g64
I0
sg65
F12.15499997138977
sg66
I4
sg67
I4
sg68
I4
sg69
I00
ssS'8'
p86
(dp87
g64
I0
sg65
F55.95700001716614
sg66
I5
sg67
I5
sg68
I5
sg69
I00
sssS'sfd'
p88
(dp89
S'logins'
p90
I1
sS'1'
p91
(dp92
S'incorrect'
p93
I0
sS'active_time'
p94
I0
sS'level'
p95
I0
sS'attempts'
p96
I0
sS'correct'
p97
I0
sS'previous_num'
p98
I00
ssS'0'
p99
(dp100
g93
I0
sg94
I0
sg95
I0
sg96
I0
sg97
I0
sg98
I00
ssS'3'
p101
(dp102
g93
I0
sg94
I0
sg95
I0
sg96
I0
sg97
I0
sg98
I00
ssS'2'
p103
(dp104
g93
I0
sg94
I0
sg95
I0
sg96
I0
sg97
I0
sg98
I00
ssS'5'
p105
(dp106
g93
I0
sg94
I0
sg95
I0
sg96
I0
sg97
I0
sg98
I01
ssS'4'
p107
(dp108
g93
I0
sg94
I0
sg95
I0
sg96
I0
sg97
I0
sg98
I00
ssS'7'
p109
(dp110
g93
I0
sg94
I0
sg95
I0
sg96
I0
sg97
I0
sg98
I00
ssS'6'
p111
(dp112
g93
I0
sg94
I0
sg95
I0
sg96
I0
sg97
I0
sg98
I00
ssS'9'
p113
(dp114
g93
I0
sg94
I0
sg95
I0
sg96
I0
sg97
I0
sg98
I00
ssS'8'
p115
(dp116
g93
I0
sg94
I0
sg95
I0
sg96
I0
sg97
I0
sg98
I00
sssS'Sofia'
p117
(dp118
S'logins'
p119
I1
sS'1'
p120
(dp121
S'incorrect'
p122
I0
sS'active_time'
p123
F36.77500009536743
sS'level'
p124
I1
sS'attempts'
p125
I0
sS'correct'
p126
I1
sS'previous_num'
p127
I00
ssS'0'
p128
(dp129
g122
I0
sg123
I0
sg124
I0
sg125
I0
sg126
I0
sg127
I00
ssS'3'
p130
(dp131
g122
I0
sg123
I0
sg124
I0
sg125
I0
sg126
I0
sg127
I00
ssS'2'
p132
(dp133
g122
I0
sg123
F4.204999923706055
sg124
I0
sg125
I1
sg126
I1
sg127
I00
ssS'5'
p134
(dp135
g122
I0
sg123
I0
sg124
I0
sg125
I0
sg126
I0
sg127
I00
ssS'4'
p136
(dp137
g122
I0
sg123
I0
sg124
I0
sg125
I0
sg126
I0
sg127
I00
ssS'7'
p138
(dp139
g122
I0
sg123
I0
sg124
I0
sg125
I0
sg126
I0
sg127
I00
ssS'6'
p140
(dp141
g122
I0
sg123
I0
sg124
I0
sg125
I0
sg126
I0
sg127
I00
ssS'9'
p142
(dp143
g122
I0
sg123
I0
sg124
I0
sg125
I0
sg126
I0
sg127
I00
ssS'8'
p144
(dp145
g122
I0
sg123
I0
sg124
I0
sg125
I1
sg126
I0
sg127
I01
sss.